; Function Attrs: nounwind uwtable
define range(i32 0, 2) i32 @verify_stateless_cookie_callback(ptr noundef %0, ptr noundef readonly captures(none) %1, i64 noundef %2) local_unnamed_addr #0 {
  %4 = alloca [64 x i8], align 16
  %5 = alloca i64, align 8
  call void @llvm.lifetime.start.p0(i64 64, ptr nonnull %4) #6
  call void @llvm.lifetime.start.p0(i64 8, ptr nonnull %5) #6
  %.b = load i1, ptr @cookie_initialized, align 4
  br i1 %.b, label %6, label %12

6:                                                ; preds = %3
  %7 = call i32 @generate_stateless_cookie_callback(ptr noundef %0, ptr noundef nonnull %4, ptr noundef nonnull %5)
  %.not = icmp ne i32 %7, 0
  %8 = load i64, ptr %5, align 8
  %9 = icmp eq i64 %2, %8
  %or.cond = select i1 %.not, i1 %9, i1 false
  br i1 %or.cond, label %10, label %12

10:                                               ; preds = %6
  %bcmp = call i32 @bcmp(ptr nonnull %4, ptr %1, i64 %2)
  %11 = icmp eq i32 %bcmp, 0
  br i1 %11, label %13, label %12

12:                                               ; preds = %10, %6, %3
  br label %13

13:                                               ; preds = %10, %12
  %.0 = phi i32 [ 0, %12 ], [ 1, %10 ]
  call void @llvm.lifetime.end.p0(i64 8, ptr nonnull %5) #6
  call void @llvm.lifetime.end.p0(i64 64, ptr nonnull %4) #6
  ret i32 %.0
}